; ModuleID = '6/1905.c'
source_filename = "6/1905.c"
target datalayout = "e-m:e-p270:32:32-p271:32:32-p272:64:64-i64:64-f80:128-n8:16:32:64-S128"
target triple = "x86_64-pc-linux-gnu"

@.str = private unnamed_addr constant [3 x i8] c"%d\00", align 1
@.str.1 = private unnamed_addr constant [6 x i8] c"%d %d\00", align 1
@.str.2 = private unnamed_addr constant [4 x i8] c"%d\0A\00", align 1

; Function Attrs: noinline nounwind uwtable
define dso_local i32 @main() #0 {
  %1 = alloca i32, align 4
  %2 = alloca i32, align 4
  %3 = alloca i32, align 4
  %4 = alloca i32, align 4
  %5 = alloca i32, align 4
  %6 = alloca i32, align 4
  %7 = alloca i32, align 4
  %8 = alloca i32, align 4
  %9 = alloca i32, align 4
  %10 = alloca [100 x i32], align 16
  %11 = alloca [100 x [100 x i32]], align 16
  %12 = alloca [100 x i32], align 16
  store i32 0, i32* %1, align 4
  store i32 0, i32* %6, align 4
  %13 = call i32 (i8*, ...) @__isoc99_scanf(i8* getelementptr inbounds ([3 x i8], [3 x i8]* @.str, i64 0, i64 0), i32* %7)
  store i32 0, i32* %5, align 4
  br label %14

14:                                               ; preds = %21, %0
  %15 = load i32, i32* %5, align 4
  %16 = icmp slt i32 %15, 100
  br i1 %16, label %17, label %24

17:                                               ; preds = %14
  %18 = load i32, i32* %5, align 4
  %19 = sext i32 %18 to i64
  %20 = getelementptr inbounds [100 x i32], [100 x i32]* %10, i64 0, i64 %19
  store i32 0, i32* %20, align 4
  br label %21

21:                                               ; preds = %17
  %22 = load i32, i32* %5, align 4
  %23 = add nsw i32 %22, 1
  store i32 %23, i32* %5, align 4
  br label %14

24:                                               ; preds = %14
  store i32 0, i32* %5, align 4
  br label %25

25:                                               ; preds = %115, %24
  %26 = load i32, i32* %5, align 4
  %27 = load i32, i32* %7, align 4
  %28 = icmp slt i32 %26, %27
  br i1 %28, label %29, label %118

29:                                               ; preds = %25
  %30 = call i32 (i8*, ...) @__isoc99_scanf(i8* getelementptr inbounds ([6 x i8], [6 x i8]* @.str.1, i64 0, i64 0), i32* %8, i32* %9)
  store i32 0, i32* %2, align 4
  br label %31

31:                                               ; preds = %52, %29
  %32 = load i32, i32* %2, align 4
  %33 = load i32, i32* %8, align 4
  %34 = icmp slt i32 %32, %33
  br i1 %34, label %35, label %55

35:                                               ; preds = %31
  store i32 0, i32* %3, align 4
  br label %36

36:                                               ; preds = %48, %35
  %37 = load i32, i32* %3, align 4
  %38 = load i32, i32* %9, align 4
  %39 = icmp slt i32 %37, %38
  br i1 %39, label %40, label %51

40:                                               ; preds = %36
  %41 = load i32, i32* %2, align 4
  %42 = sext i32 %41 to i64
  %43 = getelementptr inbounds [100 x [100 x i32]], [100 x [100 x i32]]* %11, i64 0, i64 %42
  %44 = load i32, i32* %3, align 4
  %45 = sext i32 %44 to i64
  %46 = getelementptr inbounds [100 x i32], [100 x i32]* %43, i64 0, i64 %45
  %47 = call i32 (i8*, ...) @__isoc99_scanf(i8* getelementptr inbounds ([3 x i8], [3 x i8]* @.str, i64 0, i64 0), i32* %46)
  br label %48

48:                                               ; preds = %40
  %49 = load i32, i32* %3, align 4
  %50 = add nsw i32 %49, 1
  store i32 %50, i32* %3, align 4
  br label %36

51:                                               ; preds = %36
  br label %52

52:                                               ; preds = %51
  %53 = load i32, i32* %2, align 4
  %54 = add nsw i32 %53, 1
  store i32 %54, i32* %2, align 4
  br label %31

55:                                               ; preds = %31
  store i32 0, i32* %4, align 4
  br label %56

56:                                               ; preds = %80, %55
  %57 = load i32, i32* %4, align 4
  %58 = load i32, i32* %8, align 4
  %59 = icmp slt i32 %57, %58
  br i1 %59, label %60, label %83

60:                                               ; preds = %56
  %61 = load i32, i32* %4, align 4
  %62 = sext i32 %61 to i64
  %63 = getelementptr inbounds [100 x [100 x i32]], [100 x [100 x i32]]* %11, i64 0, i64 %62
  %64 = getelementptr inbounds [100 x i32], [100 x i32]* %63, i64 0, i64 0
  %65 = load i32, i32* %64, align 16
  %66 = load i32, i32* %4, align 4
  %67 = sext i32 %66 to i64
  %68 = getelementptr inbounds [100 x [100 x i32]], [100 x [100 x i32]]* %11, i64 0, i64 %67
  %69 = load i32, i32* %9, align 4
  %70 = sub nsw i32 %69, 1
  %71 = sext i32 %70 to i64
  %72 = getelementptr inbounds [100 x i32], [100 x i32]* %68, i64 0, i64 %71
  %73 = load i32, i32* %72, align 4
  %74 = add nsw i32 %65, %73
  %75 = load i32, i32* %6, align 4
  %76 = sext i32 %75 to i64
  %77 = getelementptr inbounds [100 x i32], [100 x i32]* %10, i64 0, i64 %76
  %78 = load i32, i32* %77, align 4
  %79 = add nsw i32 %78, %74
  store i32 %79, i32* %77, align 4
  br label %80

80:                                               ; preds = %60
  %81 = load i32, i32* %4, align 4
  %82 = add nsw i32 %81, 1
  store i32 %82, i32* %4, align 4
  br label %56

83:                                               ; preds = %56
  store i32 1, i32* %4, align 4
  br label %84

84:                                               ; preds = %109, %83
  %85 = load i32, i32* %4, align 4
  %86 = load i32, i32* %9, align 4
  %87 = sub nsw i32 %86, 1
  %88 = icmp slt i32 %85, %87
  br i1 %88, label %89, label %112

89:                                               ; preds = %84
  %90 = getelementptr inbounds [100 x [100 x i32]], [100 x [100 x i32]]* %11, i64 0, i64 0
  %91 = load i32, i32* %4, align 4
  %92 = sext i32 %91 to i64
  %93 = getelementptr inbounds [100 x i32], [100 x i32]* %90, i64 0, i64 %92
  %94 = load i32, i32* %93, align 4
  %95 = load i32, i32* %8, align 4
  %96 = sub nsw i32 %95, 1
  %97 = sext i32 %96 to i64
  %98 = getelementptr inbounds [100 x [100 x i32]], [100 x [100 x i32]]* %11, i64 0, i64 %97
  %99 = load i32, i32* %4, align 4
  %100 = sext i32 %99 to i64
  %101 = getelementptr inbounds [100 x i32], [100 x i32]* %98, i64 0, i64 %100
  %102 = load i32, i32* %101, align 4
  %103 = add nsw i32 %94, %102
  %104 = load i32, i32* %6, align 4
  %105 = sext i32 %104 to i64
  %106 = getelementptr inbounds [100 x i32], [100 x i32]* %10, i64 0, i64 %105
  %107 = load i32, i32* %106, align 4
  %108 = add nsw i32 %107, %103
  store i32 %108, i32* %106, align 4
  br label %109

109:                                              ; preds = %89
  %110 = load i32, i32* %4, align 4
  %111 = add nsw i32 %110, 1
  store i32 %111, i32* %4, align 4
  br label %84

112:                                              ; preds = %84
  %113 = load i32, i32* %6, align 4
  %114 = add nsw i32 %113, 1
  store i32 %114, i32* %6, align 4
  br label %115

115:                                              ; preds = %112
  %116 = load i32, i32* %5, align 4
  %117 = add nsw i32 %116, 1
  store i32 %117, i32* %5, align 4
  br label %25

118:                                              ; preds = %25
  store i32 0, i32* %5, align 4
  br label %119

119:                                              ; preds = %129, %118
  %120 = load i32, i32* %5, align 4
  %121 = load i32, i32* %6, align 4
  %122 = icmp slt i32 %120, %121
  br i1 %122, label %123, label %132

123:                                              ; preds = %119
  %124 = load i32, i32* %5, align 4
  %125 = sext i32 %124 to i64
  %126 = getelementptr inbounds [100 x i32], [100 x i32]* %10, i64 0, i64 %125
  %127 = load i32, i32* %126, align 4
  %128 = call i32 (i8*, ...) @printf(i8* getelementptr inbounds ([4 x i8], [4 x i8]* @.str.2, i64 0, i64 0), i32 %127)
  br label %129

129:                                              ; preds = %123
  %130 = load i32, i32* %5, align 4
  %131 = add nsw i32 %130, 1
  store i32 %131, i32* %5, align 4
  br label %119

132:                                              ; preds = %119
  ret i32 0
}

declare dso_local i32 @__isoc99_scanf(i8*, ...) #1

declare dso_local i32 @printf(i8*, ...) #1


!llvm.module.flags = !{!0}
!llvm.ident = !{!1}

!0 = !{i32 1, !"wchar_size", i32 4}
!1 = !{!"clang version 10.0.0-4ubuntu1 "}
